; Function Attrs: mustprogress nounwind uwtable
define noundef nonnull align 8 dereferenceable(72) ptr @_ZN5folly13MemoryMappingaSEOS0_(ptr noundef nonnull returned align 8 dereferenceable(72) %0, ptr noundef nonnull align 8 dereferenceable(72) %1) local_unnamed_addr #6 align 2 personality ptr @__gxx_personality_v0 {
  %3 = alloca %"struct.folly::MemoryMapping::Options", align 8
  tail call void @_ZN5folly4swapERNS_4FileES1_(ptr noundef nonnull align 8 dereferenceable(72) %0, ptr noundef nonnull align 8 dereferenceable(72) %1) #20
  %4 = getelementptr inbounds nuw i8, ptr %0, i64 8
  %5 = getelementptr inbounds nuw i8, ptr %1, i64 8
  %6 = load ptr, ptr %4, align 8, !tbaa !27
  %7 = load ptr, ptr %5, align 8, !tbaa !27
  store ptr %7, ptr %4, align 8, !tbaa !27
  store ptr %6, ptr %5, align 8, !tbaa !27
  %8 = getelementptr inbounds nuw i8, ptr %0, i64 16
  %9 = getelementptr inbounds nuw i8, ptr %1, i64 16
  %10 = load i64, ptr %8, align 8, !tbaa !28
  %11 = load i64, ptr %9, align 8, !tbaa !28
  store i64 %11, ptr %8, align 8, !tbaa !28
  store i64 %10, ptr %9, align 8, !tbaa !28
  %12 = getelementptr inbounds nuw i8, ptr %0, i64 24
  %13 = getelementptr inbounds nuw i8, ptr %1, i64 24
  call void @llvm.lifetime.start.p0(i64 24, ptr nonnull %3)
  call void @llvm.memcpy.p0.p0.i64(ptr noundef nonnull align 8 dereferenceable(24) %3, ptr noundef nonnull align 8 dereferenceable(24) %12, i64 24, i1 false), !tbaa.struct !29
  tail call void @llvm.memcpy.p0.p0.i64(ptr noundef nonnull align 8 dereferenceable(24) %12, ptr noundef nonnull align 8 dereferenceable(24) %13, i64 24, i1 false), !tbaa.struct !29
  call void @llvm.memcpy.p0.p0.i64(ptr noundef nonnull align 8 dereferenceable(24) %13, ptr noundef nonnull align 8 dereferenceable(24) %3, i64 24, i1 false), !tbaa.struct !29
  call void @llvm.lifetime.end.p0(i64 24, ptr nonnull %3)
  %14 = getelementptr inbounds nuw i8, ptr %0, i64 48
  %15 = getelementptr inbounds nuw i8, ptr %1, i64 48
  %16 = load i8, ptr %14, align 8, !tbaa !30, !range !31, !noundef !32
  %17 = load i8, ptr %15, align 8, !tbaa !30, !range !31, !noundef !32
  store i8 %17, ptr %14, align 8, !tbaa !30
  store i8 %16, ptr %15, align 8, !tbaa !30
  %18 = getelementptr inbounds nuw i8, ptr %0, i64 56
  %19 = getelementptr inbounds nuw i8, ptr %1, i64 56
  %20 = load ptr, ptr %18, align 8, !tbaa !33
  %21 = load ptr, ptr %19, align 8, !tbaa !33
  store ptr %21, ptr %18, align 8, !tbaa !33
  store ptr %20, ptr %19, align 8, !tbaa !33
  %22 = getelementptr inbounds nuw i8, ptr %0, i64 64
  %23 = getelementptr inbounds nuw i8, ptr %1, i64 64
  %24 = load ptr, ptr %22, align 8, !tbaa !33
  %25 = load ptr, ptr %23, align 8, !tbaa !33
  store ptr %25, ptr %22, align 8, !tbaa !33
  store ptr %24, ptr %23, align 8, !tbaa !33
  ret ptr %0
}